; Function Attrs: mustprogress uwtable
define hidden noundef nonnull ptr @_ZN4ncnn22BinaryOp_layer_creatorEPv(ptr readnone captures(none) %0) #2 personality ptr @__gxx_personality_v0 {
  %2 = tail call noalias noundef nonnull dereferenceable(224) ptr @_Znwm(i64 noundef 224) #21
  invoke void @_ZN4ncnn8BinaryOpC1Ev(ptr noundef nonnull align 8 dereferenceable(220) %2)
          to label %3 unwind label %4

3:                                                ; preds = %1
  ret ptr %2

4:                                                ; preds = %1
  %5 = landingpad { ptr, i32 }
          cleanup
  tail call void @_ZdlPvm(ptr noundef nonnull %2, i64 noundef 224) #19
  resume { ptr, i32 } %5
}